(lp0
S'poi'
p1
aS'salary'
p2
aS'bonus'
p3
aS'total_payments'
p4
aS'exercised_stock_options'
p5
aS'shared_receipt_with_poi'
p6
aS'expenses'
p7
aS'email_to_poi_ratio'
p8
aS'email_from_poi_ratio'
p9
aS'exer_stock_ratio'
p10
a.