(lp0
S'poi'
p1
aS'bonus'
p2
aS'total_stock_value'
p3
aS'expenses'
p4
aS'deferred_income'
p5
aS'shared_receipt_with_poi'
p6
aS'long_term_incentive'
p7
aS'salary'
p8
aS'total_payments'
p9
aS'loan_advances'
p10
aS'restricted_stock'
p11
aS'email_to_poi_ratio'
p12
aS'exercised_stock_options'
p13
aS'other'
p14
aS'director_fees'
p15
a.